target datalayout = "e-m:e-p270:32:32-p271:32:32-p272:64:64-i64:64-i128:128-f80:128-n8:16:32:64-S128"
target triple = "x86_64-pc-linux-gnu"

%"class.icu_77::GregorianCalendar" = type <{ %"class.icu_77::Calendar", double, i32, [4 x i8], double, i32, i8, i8, [2 x i8] }>
%"class.icu_77::Calendar" = type <{ %"class.icu_77::UObject", [24 x i32], [24 x i8], i8, [7 x i8], double, ptr, i8, i16, i8, i32, i32, i32, i8, i8, i16, [4 x i8], ptr, ptr }>
%"class.icu_77::UObject" = type { ptr }

@_ZN6icu_7717GregorianCalendarC1ERKNS_8TimeZoneER10UErrorCode = unnamed_addr alias void (ptr, ptr, ptr), ptr @_ZN6icu_7717GregorianCalendarC2ERKNS_8TimeZoneER10UErrorCode

; Function Attrs: inlinehint mustprogress uwtable
define linkonce_odr void @_ZN6icu_778Calendar7setTimeEdR10UErrorCode(ptr noundef nonnull align 8 dereferenceable(192) %0, double noundef %1, ptr noundef nonnull align 4 dereferenceable(4) %2) #6 comdat align 2 {
  %4 = alloca ptr, align 8
  %5 = alloca double, align 8
  %6 = alloca ptr, align 8
  store ptr %0, ptr %4, align 8, !tbaa !32
  store double %1, ptr %5, align 8, !tbaa !34
  store ptr %2, ptr %6, align 8, !tbaa !8
  %7 = load ptr, ptr %4, align 8
  %8 = load double, ptr %5, align 8, !tbaa !34
  %9 = load ptr, ptr %6, align 8, !tbaa !8
  call void @_ZN6icu_778Calendar15setTimeInMillisEdR10UErrorCode(ptr noundef nonnull align 8 dereferenceable(192) %7, double noundef %8, ptr noundef nonnull align 4 dereferenceable(4) %9)
  ret void
}

; Function Attrs: inlinehint mustprogress uwtable
define linkonce_odr noundef double @_ZN6icu_779ClockMath11floorDivideEdd(double noundef %0, double noundef %1) #6 comdat align 2 {
  %3 = alloca double, align 8
  %4 = alloca double, align 8
  store double %0, ptr %3, align 8, !tbaa !34
  store double %1, ptr %4, align 8, !tbaa !34
  %5 = load double, ptr %3, align 8, !tbaa !34
  %6 = load double, ptr %4, align 8, !tbaa !34
  %7 = fdiv double %5, %6
  %8 = call double @uprv_floor_77(double noundef %7)
  ret double %8
}

; Function Attrs: inlinehint mustprogress nounwind uwtable
define internal noundef signext i8 @_ZL9U_FAILURE10UErrorCode(i32 noundef %0) #4 {
  %2 = alloca i32, align 4
  store i32 %0, ptr %2, align 4, !tbaa !35
  %3 = load i32, ptr %2, align 4, !tbaa !35
  %4 = icmp sgt i32 %3, 0
  %5 = zext i1 %4 to i8
  ret i8 %5
}

; Function Attrs: mustprogress uwtable
define void @_ZN6icu_7717GregorianCalendar18setGregorianChangeEdR10UErrorCode(ptr noundef nonnull align 8 dereferenceable(222) %0, double noundef %1, ptr noundef nonnull align 4 dereferenceable(4) %2) #1 align 2 personality ptr @__gxx_personality_v0 {
  %4 = alloca ptr, align 8
  %5 = alloca double, align 8
  %6 = alloca ptr, align 8
  %7 = alloca double, align 8
  %8 = alloca ptr, align 8
  %9 = alloca ptr, align 8
  %10 = alloca i1, align 1
  %11 = alloca ptr, align 8
  %12 = alloca i32, align 4
  %13 = alloca i32, align 4
  store ptr %0, ptr %4, align 8, !tbaa !3
  store double %1, ptr %5, align 8, !tbaa !34
  store ptr %2, ptr %6, align 8, !tbaa !8
  %14 = load ptr, ptr %4, align 8
  %15 = load ptr, ptr %6, align 8, !tbaa !8
  %16 = load i32, ptr %15, align 4, !tbaa !35
  %17 = call noundef signext i8 @_ZL9U_FAILURE10UErrorCode(i32 noundef %16)
  %18 = icmp ne i8 %17, 0
  br i1 %18, label %19, label %20

19:                                               ; preds = %3
  br label %103

20:                                               ; preds = %3
  call void @llvm.lifetime.start.p0(i64 8, ptr %7) #10
  %21 = load double, ptr %5, align 8, !tbaa !34
  %22 = call noundef double @_ZN6icu_779ClockMath11floorDivideEdd(double noundef %21, double noundef 8.640000e+07)
  store double %22, ptr %7, align 8, !tbaa !34
  %23 = load double, ptr %7, align 8, !tbaa !34
  %24 = fcmp ole double %23, 0xC1E0000000000000
  br i1 %24, label %25, label %30

25:                                               ; preds = %20
  store double 0xC1E0000000000000, ptr %7, align 8, !tbaa !34
  %26 = load double, ptr %7, align 8, !tbaa !34
  %27 = fmul double %26, 8.640000e+07
  %28 = getelementptr inbounds nuw %"class.icu_77::GregorianCalendar", ptr %14, i32 0, i32 4
  store double %27, ptr %28, align 8, !tbaa !24
  %29 = getelementptr inbounds nuw %"class.icu_77::GregorianCalendar", ptr %14, i32 0, i32 1
  store double %27, ptr %29, align 8, !tbaa !11
  br label %45

30:                                               ; preds = %20
  %31 = load double, ptr %7, align 8, !tbaa !34
  %32 = fcmp oge double %31, 0x41DFFFFFFFC00000
  br i1 %32, label %33, label %38

33:                                               ; preds = %30
  store double 0x41DFFFFFFFC00000, ptr %7, align 8, !tbaa !34
  %34 = load double, ptr %7, align 8, !tbaa !34
  %35 = fmul double %34, 8.640000e+07
  %36 = getelementptr inbounds nuw %"class.icu_77::GregorianCalendar", ptr %14, i32 0, i32 4
  store double %35, ptr %36, align 8, !tbaa !24
  %37 = getelementptr inbounds nuw %"class.icu_77::GregorianCalendar", ptr %14, i32 0, i32 1
  store double %35, ptr %37, align 8, !tbaa !11
  br label %44

38:                                               ; preds = %30
  %39 = load double, ptr %7, align 8, !tbaa !34
  %40 = fmul double %39, 8.640000e+07
  %41 = getelementptr inbounds nuw %"class.icu_77::GregorianCalendar", ptr %14, i32 0, i32 4
  store double %40, ptr %41, align 8, !tbaa !24
  %42 = load double, ptr %5, align 8, !tbaa !34
  %43 = getelementptr inbounds nuw %"class.icu_77::GregorianCalendar", ptr %14, i32 0, i32 1
  store double %42, ptr %43, align 8, !tbaa !11
  br label %44

44:                                               ; preds = %38, %33
  br label %45

45:                                               ; preds = %44, %25
  call void @llvm.lifetime.start.p0(i64 8, ptr %8) #10
  %46 = call noundef ptr @_ZN6icu_777UMemorynwEm(i64 noundef 224) #10
  %47 = icmp eq ptr %46, null
  store i1 false, ptr %10, align 1
  br i1 %47, label %53, label %48

48:                                               ; preds = %45
  store ptr %46, ptr %9, align 8
  store i1 true, ptr %10, align 1
  %49 = invoke noundef nonnull align 8 dereferenceable(72) ptr @_ZNK6icu_778Calendar11getTimeZoneEv(ptr noundef nonnull align 8 dereferenceable(192) %14)
          to label %50 unwind label %59

50:                                               ; preds = %48
  %51 = load ptr, ptr %6, align 8, !tbaa !8
  invoke void @_ZN6icu_7717GregorianCalendarC1ERKNS_8TimeZoneER10UErrorCode(ptr noundef nonnull align 8 dereferenceable(222) %46, ptr noundef nonnull align 8 dereferenceable(72) %49, ptr noundef nonnull align 4 dereferenceable(4) %51)
          to label %52 unwind label %59

52:                                               ; preds = %50
  br label %53

53:                                               ; preds = %52, %45
  %54 = phi ptr [ %46, %52 ], [ null, %45 ]
  store ptr %54, ptr %8, align 8, !tbaa !3
  %55 = load ptr, ptr %8, align 8, !tbaa !3
  %56 = icmp eq ptr %55, null
  br i1 %56, label %57, label %67

57:                                               ; preds = %53
  %58 = load ptr, ptr %6, align 8, !tbaa !8
  store i32 7, ptr %58, align 4, !tbaa !35
  store i32 1, ptr %13, align 4
  br label %101

59:                                               ; preds = %50, %48
  %60 = landingpad { ptr, i32 }
          cleanup
  %61 = extractvalue { ptr, i32 } %60, 0
  store ptr %61, ptr %11, align 8
  %62 = extractvalue { ptr, i32 } %60, 1
  store i32 %62, ptr %12, align 4
  %63 = load i1, ptr %10, align 1
  br i1 %63, label %64, label %66

64:                                               ; preds = %59
  %65 = load ptr, ptr %9, align 8
  call void @_ZN6icu_777UMemorydlEPv(ptr noundef %65) #10
  br label %66

66:                                               ; preds = %64, %59
  call void @llvm.lifetime.end.p0(i64 8, ptr %8) #10
  call void @llvm.lifetime.end.p0(i64 8, ptr %7) #10
  br label %104

67:                                               ; preds = %53
  %68 = load ptr, ptr %6, align 8, !tbaa !8
  %69 = load i32, ptr %68, align 4, !tbaa !35
  %70 = call noundef signext i8 @_ZL9U_FAILURE10UErrorCode(i32 noundef %69)
  %71 = icmp ne i8 %70, 0
  br i1 %71, label %72, label %73

72:                                               ; preds = %67
  store i32 1, ptr %13, align 4
  br label %101

73:                                               ; preds = %67
  %74 = load ptr, ptr %8, align 8, !tbaa !3
  %75 = load double, ptr %5, align 8, !tbaa !34
  %76 = load ptr, ptr %6, align 8, !tbaa !8
  call void @_ZN6icu_778Calendar7setTimeEdR10UErrorCode(ptr noundef nonnull align 8 dereferenceable(192) %74, double noundef %75, ptr noundef nonnull align 4 dereferenceable(4) %76)
  %77 = load ptr, ptr %8, align 8, !tbaa !3
  %78 = load ptr, ptr %6, align 8, !tbaa !8
  %79 = call noundef i32 @_ZNK6icu_778Calendar3getE19UCalendarDateFieldsR10UErrorCode(ptr noundef nonnull align 8 dereferenceable(192) %77, i32 noundef 1, ptr noundef nonnull align 4 dereferenceable(4) %78)
  %80 = getelementptr inbounds nuw %"class.icu_77::GregorianCalendar", ptr %14, i32 0, i32 5
  store i32 %79, ptr %80, align 8, !tbaa !25
  %81 = load ptr, ptr %8, align 8, !tbaa !3
  %82 = load ptr, ptr %6, align 8, !tbaa !8
  %83 = call noundef i32 @_ZNK6icu_778Calendar3getE19UCalendarDateFieldsR10UErrorCode(ptr noundef nonnull align 8 dereferenceable(192) %81, i32 noundef 0, ptr noundef nonnull align 4 dereferenceable(4) %82)
  %84 = icmp eq i32 %83, 0
  br i1 %84, label %85, label %90

85:                                               ; preds = %73
  %86 = getelementptr inbounds nuw %"class.icu_77::GregorianCalendar", ptr %14, i32 0, i32 5
  %87 = load i32, ptr %86, align 8, !tbaa !25
  %88 = sub nsw i32 1, %87
  %89 = getelementptr inbounds nuw %"class.icu_77::GregorianCalendar", ptr %14, i32 0, i32 5
  store i32 %88, ptr %89, align 8, !tbaa !25
  br label %90

90:                                               ; preds = %85, %73
  %91 = load double, ptr %7, align 8, !tbaa !34
  %92 = fptosi double %91 to i32
  %93 = getelementptr inbounds nuw %"class.icu_77::GregorianCalendar", ptr %14, i32 0, i32 2
  store i32 %92, ptr %93, align 8, !tbaa !23
  %94 = load ptr, ptr %8, align 8, !tbaa !3
  %95 = icmp eq ptr %94, null
  br i1 %95, label %100, label %96

96:                                               ; preds = %90
  %97 = load ptr, ptr %94, align 8, !tbaa !9
  %98 = getelementptr inbounds ptr, ptr %97, i64 1
  %99 = load ptr, ptr %98, align 8
  call void %99(ptr noundef nonnull align 8 dereferenceable(222) %94) #10
  br label %100

100:                                              ; preds = %96, %90
  store i32 0, ptr %13, align 4
  br label %101

101:                                              ; preds = %100, %72, %57
  call void @llvm.lifetime.end.p0(i64 8, ptr %8) #10
  call void @llvm.lifetime.end.p0(i64 8, ptr %7) #10
  %102 = load i32, ptr %13, align 4
  switch i32 %102, label %109 [
    i32 0, label %103
    i32 1, label %103
  ]

103:                                              ; preds = %19, %101, %101
  ret void

104:                                              ; preds = %66
  %105 = load ptr, ptr %11, align 8
  %106 = load i32, ptr %12, align 4
  %107 = insertvalue { ptr, i32 } poison, ptr %105, 0
  %108 = insertvalue { ptr, i32 } %107, i32 %106, 1
  resume { ptr, i32 } %108

109:                                              ; preds = %101
  unreachable
}