; Function Attrs: mustprogress uwtable
define void @_ZN6icu_7717GregorianCalendar18setGregorianChangeEdR10UErrorCode(ptr noundef nonnull align 8 dereferenceable(222) %0, double noundef %1, ptr noundef nonnull align 4 dereferenceable(4) %2) local_unnamed_addr #1 align 2 personality ptr @__gxx_personality_v0 {
  %4 = load i32, ptr %2, align 4, !tbaa !25
  %5 = icmp slt i32 %4, 1
  br i1 %5, label %6, label %48

6:                                                ; preds = %3
  %7 = fdiv double %1, 8.640000e+07
  %8 = tail call noundef double @uprv_floor_77(double noundef %7)
  %9 = fcmp ugt double %8, 0xC1E0000000000000
  br i1 %9, label %13, label %10

10:                                               ; preds = %6
  %11 = getelementptr inbounds nuw i8, ptr %0, i64 208
  store double 0xC384997000000000, ptr %11, align 8, !tbaa !21
  %12 = getelementptr inbounds nuw i8, ptr %0, i64 192
  store double 0xC384997000000000, ptr %12, align 8, !tbaa !6
  br label %23

13:                                               ; preds = %6
  %14 = fcmp ult double %8, 0x41DFFFFFFFC00000
  br i1 %14, label %18, label %15

15:                                               ; preds = %13
  %16 = getelementptr inbounds nuw i8, ptr %0, i64 208
  store double 0x4384996FFFD6CD20, ptr %16, align 8, !tbaa !21
  %17 = getelementptr inbounds nuw i8, ptr %0, i64 192
  store double 0x4384996FFFD6CD20, ptr %17, align 8, !tbaa !6
  br label %23

18:                                               ; preds = %13
  %19 = fmul double %8, 8.640000e+07
  %20 = getelementptr inbounds nuw i8, ptr %0, i64 208
  store double %19, ptr %20, align 8, !tbaa !21
  %21 = getelementptr inbounds nuw i8, ptr %0, i64 192
  store double %1, ptr %21, align 8, !tbaa !6
  %22 = fptosi double %8 to i32
  br label %23

23:                                               ; preds = %15, %18, %10
  %.0 = phi i32 [ -2147483648, %10 ], [ 2147483647, %15 ], [ %22, %18 ]
  %24 = tail call noundef ptr @_ZN6icu_777UMemorynwEm(i64 noundef 224) #9
  %25 = icmp eq ptr %24, null
  br i1 %25, label %29, label %26

26:                                               ; preds = %23
  %27 = invoke noundef nonnull align 8 dereferenceable(72) ptr @_ZNK6icu_778Calendar11getTimeZoneEv(ptr noundef nonnull align 8 dereferenceable(192) %0)
          to label %28 unwind label %30

28:                                               ; preds = %26
  invoke void @_ZN6icu_7717GregorianCalendarC1ERKNS_8TimeZoneER10UErrorCode(ptr noundef nonnull align 8 dereferenceable(222) %24, ptr noundef nonnull align 8 dereferenceable(72) %27, ptr noundef nonnull align 4 dereferenceable(4) %2)
          to label %32 unwind label %30

29:                                               ; preds = %23
  store i32 7, ptr %2, align 4, !tbaa !25
  br label %48

30:                                               ; preds = %28, %26
  %31 = landingpad { ptr, i32 }
          cleanup
  tail call void @_ZN6icu_777UMemorydlEPv(ptr noundef nonnull %24) #9
  resume { ptr, i32 } %31

32:                                               ; preds = %28
  %33 = load i32, ptr %2, align 4, !tbaa !25
  %34 = icmp slt i32 %33, 1
  br i1 %34, label %35, label %48

35:                                               ; preds = %32
  tail call void @_ZN6icu_778Calendar15setTimeInMillisEdR10UErrorCode(ptr noundef nonnull align 8 dereferenceable(192) %24, double noundef %1, ptr noundef nonnull align 4 dereferenceable(4) %2)
  %36 = tail call noundef i32 @_ZNK6icu_778Calendar3getE19UCalendarDateFieldsR10UErrorCode(ptr noundef nonnull align 8 dereferenceable(192) %24, i32 noundef 1, ptr noundef nonnull align 4 dereferenceable(4) %2)
  %37 = getelementptr inbounds nuw i8, ptr %0, i64 216
  store i32 %36, ptr %37, align 8, !tbaa !22
  %38 = tail call noundef i32 @_ZNK6icu_778Calendar3getE19UCalendarDateFieldsR10UErrorCode(ptr noundef nonnull align 8 dereferenceable(192) %24, i32 noundef 0, ptr noundef nonnull align 4 dereferenceable(4) %2)
  %39 = icmp eq i32 %38, 0
  br i1 %39, label %40, label %43

40:                                               ; preds = %35
  %41 = load i32, ptr %37, align 8, !tbaa !22
  %42 = sub nsw i32 1, %41
  store i32 %42, ptr %37, align 8, !tbaa !22
  br label %43

43:                                               ; preds = %40, %35
  %44 = getelementptr inbounds nuw i8, ptr %0, i64 200
  store i32 %.0, ptr %44, align 8, !tbaa !20
  %45 = load ptr, ptr %24, align 8, !tbaa !3
  %46 = getelementptr inbounds nuw i8, ptr %45, i64 8
  %47 = load ptr, ptr %46, align 8
  tail call void %47(ptr noundef nonnull align 8 dereferenceable(222) %24) #9
  br label %48

48:                                               ; preds = %29, %43, %32, %3
  ret void
}